target datalayout = "e-m:e-p270:32:32-p271:32:32-p272:64:64-i64:64-i128:128-f80:128-n8:16:32:64-S128"
target triple = "x86_64-pc-linux-gnu"

%struct.Curl_easy = type { i32, i64, ptr, ptr, ptr, %struct.Curl_llist_element, %struct.Curl_llist_element, i32, i32, %struct.Curl_message, %struct.easy_pollset, %struct.Names, ptr, ptr, ptr, %struct.SingleRequest, %struct.UserDefined, ptr, ptr, %struct.Progress, %struct.UrlState, ptr, %struct.PureInfo, %struct.curl_tlssessioninfo }
%struct.Curl_llist_element = type { ptr, ptr, ptr }
%struct.Curl_message = type { %struct.Curl_llist_element, %struct.CURLMsg }
%struct.CURLMsg = type { i32, ptr, %union.anon }
%union.anon = type { ptr }
%struct.easy_pollset = type { [5 x i32], i32, [5 x i8] }
%struct.Names = type { ptr, i32 }
%struct.SingleRequest = type <{ i64, i64, i64, i64, i64, %struct.curltime, i32, i32, i32, i32, i64, i32, i32, %struct.curltime, i32, i32, ptr, i64, i64, ptr, ptr, i64, ptr, %union.anon.0, ptr, [2 x i8], i8, i16, [3 x i8] }>
%struct.curltime = type { i64, i32 }
%union.anon.0 = type { ptr }
%struct.UserDefined = type <{ ptr, ptr, ptr, ptr, ptr, ptr, i16, [6 x i8], i64, i64, i64, ptr, ptr, i64, i16, i16, [4 x i8], ptr, ptr, ptr, ptr, ptr, ptr, ptr, ptr, ptr, ptr, ptr, ptr, ptr, ptr, ptr, ptr, ptr, ptr, ptr, ptr, ptr, ptr, ptr, i32, i32, i32, i32, i64, i64, i64, i64, i64, i64, i64, i64, ptr, ptr, %struct.curl_mimepart, ptr, ptr, i64, i8, i8, i8, [5 x i8], %struct.ssl_config_data, %struct.ssl_config_data, ptr, i16, i8, i8, [4 x i8], %struct.ssl_general_config, i32, i32, i32, [4 x i8], ptr, ptr, i8, [7 x i8], i64, i8, i8, i8, i8, i32, ptr, ptr, ptr, i8, i8, [2 x i8], i32, [80 x ptr], [8 x ptr], i32, i32, i32, [4 x i8], ptr, ptr, ptr, ptr, ptr, i8, [3 x i8], i32, i32, [4 x i8], i64, %struct.Curl_data_priority, ptr, ptr, i64, ptr, ptr, ptr, ptr, ptr, i8, [3 x i8], i32, i8, i8, i56, [6 x i8] }>
%struct.curl_mimepart = type { ptr, ptr, i32, i32, ptr, ptr, ptr, ptr, ptr, ptr, ptr, ptr, ptr, ptr, ptr, i64, %struct.mime_state, ptr, %struct.mime_encoder_state, i64 }
%struct.mime_state = type { i32, ptr, i64 }
%struct.mime_encoder_state = type { i64, i64, i64, [256 x i8] }
%struct.ssl_config_data = type { %struct.ssl_primary_config, i64, ptr, ptr, ptr, ptr, ptr, ptr, ptr, i8 }
%struct.ssl_primary_config = type { ptr, ptr, ptr, ptr, ptr, ptr, ptr, ptr, ptr, ptr, ptr, ptr, i8, i32, i8, i8 }
%struct.ssl_general_config = type { i64, i32 }
%struct.Curl_data_priority = type { ptr, ptr, i32, i8 }
%struct.Progress = type { i64, i64, i64, i64, i64, i64, i32, i32, i64, i64, i64, i64, i64, i64, i64, i64, i64, i64, %struct.curltime, %struct.curltime, %struct.curltime, %struct.curltime, %struct.curltime, i64, %struct.curltime, i64, [6 x i64], [6 x %struct.curltime], i32, i8 }
%struct.UrlState = type { ptr, %struct.curltime, i64, i64, %struct.dynbuf, ptr, ptr, ptr, i64, ptr, i32, i32, i32, ptr, i64, [3 x %struct.tempbuf], i32, i32, ptr, i64, i32, ptr, %struct.digestdata, %struct.digestdata, %struct.auth, %struct.auth, %struct.Curl_async, ptr, %struct.curltime, %struct.Curl_tree, %struct.Curl_llist, [15 x %struct.time_node], ptr, i8, i64, ptr, i64, i64, %struct.Curl_data_priority, ptr, ptr, ptr, %struct.urlpieces, ptr, ptr, ptr, ptr, ptr, i64, %struct.dynbuf, %struct.Curl_llist, [2 x %struct.curl_header], ptr, i32, ptr, %struct.dynamically_allocated_data, i8, i8, i8, i8, i24 }
%struct.tempbuf = type { %struct.dynbuf, i32, i8 }
%struct.digestdata = type { ptr, ptr, ptr, ptr, ptr, ptr, i32, i8, i8 }
%struct.auth = type { i64, i64, i64, i8 }
%struct.Curl_async = type { ptr, ptr, ptr, ptr, i32, i32, i8 }
%struct.Curl_tree = type { ptr, ptr, ptr, ptr, %struct.curltime, ptr }
%struct.time_node = type { %struct.Curl_llist_element, %struct.curltime, i32 }
%struct.urlpieces = type { ptr, ptr, ptr, ptr, ptr, ptr, ptr, ptr }
%struct.dynbuf = type { ptr, i64, i64, i64 }
%struct.Curl_llist = type { ptr, ptr, ptr, i64 }
%struct.curl_header = type { ptr, ptr, i64, i64, i32, ptr }
%struct.dynamically_allocated_data = type { ptr, ptr, ptr, ptr, ptr, ptr, ptr, ptr, ptr, ptr, ptr, ptr, ptr, ptr }
%struct.PureInfo = type { i32, i32, i32, i64, i64, i64, i64, i64, ptr, ptr, i64, i32, [46 x i8], i32, i32, [46 x i8], i32, ptr, i32, %struct.curl_certinfo, i32, i8 }
%struct.curl_certinfo = type { i32, ptr }
%struct.curl_tlssessioninfo = type { i32, ptr }

@.str = private unnamed_addr constant [2 x i8] c":\00", align 1

; Function Attrs: nounwind uwtable
define dso_local i32 @Curl_ssl_push_certinfo_len(ptr noundef %0, i32 noundef %1, ptr noundef %2, ptr noundef %3, i64 noundef %4) #0 {
  %6 = alloca i32, align 4
  %7 = alloca ptr, align 8
  %8 = alloca i32, align 4
  %9 = alloca ptr, align 8
  %10 = alloca ptr, align 8
  %11 = alloca i64, align 8
  %12 = alloca ptr, align 8
  %13 = alloca ptr, align 8
  %14 = alloca i32, align 4
  %15 = alloca %struct.dynbuf, align 8
  store ptr %0, ptr %7, align 8
  store i32 %1, ptr %8, align 4
  store ptr %2, ptr %9, align 8
  store ptr %3, ptr %10, align 8
  store i64 %4, ptr %11, align 8
  %16 = load ptr, ptr %7, align 8
  %17 = getelementptr inbounds %struct.Curl_easy, ptr %16, i32 0, i32 22
  %18 = getelementptr inbounds %struct.PureInfo, ptr %17, i32 0, i32 19
  store ptr %18, ptr %12, align 8
  store i32 0, ptr %14, align 4
  call void @Curl_dyn_init(ptr noundef %15, i64 noundef 10000)
  %19 = load ptr, ptr %9, align 8
  %20 = call i32 @Curl_dyn_add(ptr noundef %15, ptr noundef %19)
  %21 = icmp ne i32 %20, 0
  br i1 %21, label %30, label %22

22:                                               ; preds = %5
  %23 = call i32 @Curl_dyn_addn(ptr noundef %15, ptr noundef @.str, i64 noundef 1)
  %24 = icmp ne i32 %23, 0
  br i1 %24, label %30, label %25

25:                                               ; preds = %22
  %26 = load ptr, ptr %10, align 8
  %27 = load i64, ptr %11, align 8
  %28 = call i32 @Curl_dyn_addn(ptr noundef %15, ptr noundef %26, i64 noundef %27)
  %29 = icmp ne i32 %28, 0
  br i1 %29, label %30, label %31

30:                                               ; preds = %25, %22, %5
  store i32 27, ptr %6, align 4
  br label %60

31:                                               ; preds = %25
  %32 = load ptr, ptr %12, align 8
  %33 = getelementptr inbounds %struct.curl_certinfo, ptr %32, i32 0, i32 1
  %34 = load ptr, ptr %33, align 8
  %35 = load i32, ptr %8, align 4
  %36 = sext i32 %35 to i64
  %37 = getelementptr inbounds ptr, ptr %34, i64 %36
  %38 = load ptr, ptr %37, align 8
  %39 = call ptr @Curl_dyn_ptr(ptr noundef %15)
  %40 = call ptr @Curl_slist_append_nodup(ptr noundef %38, ptr noundef %39)
  store ptr %40, ptr %13, align 8
  %41 = load ptr, ptr %13, align 8
  %42 = icmp ne ptr %41, null
  br i1 %42, label %51, label %43

43:                                               ; preds = %31
  call void @Curl_dyn_free(ptr noundef %15)
  %44 = load ptr, ptr %12, align 8
  %45 = getelementptr inbounds %struct.curl_certinfo, ptr %44, i32 0, i32 1
  %46 = load ptr, ptr %45, align 8
  %47 = load i32, ptr %8, align 4
  %48 = sext i32 %47 to i64
  %49 = getelementptr inbounds ptr, ptr %46, i64 %48
  %50 = load ptr, ptr %49, align 8
  call void @curl_slist_free_all(ptr noundef %50)
  store i32 27, ptr %14, align 4
  br label %51

51:                                               ; preds = %43, %31
  %52 = load ptr, ptr %13, align 8
  %53 = load ptr, ptr %12, align 8
  %54 = getelementptr inbounds %struct.curl_certinfo, ptr %53, i32 0, i32 1
  %55 = load ptr, ptr %54, align 8
  %56 = load i32, ptr %8, align 4
  %57 = sext i32 %56 to i64
  %58 = getelementptr inbounds ptr, ptr %55, i64 %57
  store ptr %52, ptr %58, align 8
  %59 = load i32, ptr %14, align 4
  store i32 %59, ptr %6, align 4
  br label %60

60:                                               ; preds = %51, %30
  %61 = load i32, ptr %6, align 4
  ret i32 %61
}