; Function Attrs: nounwind uwtable
define dso_local range(i32 0, 28) i32 @Curl_ssl_push_certinfo_len(ptr noundef readonly captures(none) %0, i32 noundef %1, ptr noundef %2, ptr noundef %3, i64 noundef %4) local_unnamed_addr #2 {
  %6 = alloca %struct.dynbuf, align 8
  call void @Curl_dyn_init(ptr noundef nonnull %6, i64 noundef 10000) #18
  %7 = call i32 @Curl_dyn_add(ptr noundef nonnull %6, ptr noundef %2) #18
  %.not = icmp eq i32 %7, 0
  br i1 %.not, label %8, label %27

8:                                                ; preds = %5
  %9 = call i32 @Curl_dyn_addn(ptr noundef nonnull %6, ptr noundef nonnull @.str, i64 noundef 1) #18
  %.not14 = icmp eq i32 %9, 0
  br i1 %.not14, label %10, label %27

10:                                               ; preds = %8
  %11 = call i32 @Curl_dyn_addn(ptr noundef nonnull %6, ptr noundef %3, i64 noundef %4) #18
  %.not15 = icmp eq i32 %11, 0
  br i1 %.not15, label %12, label %27

12:                                               ; preds = %10
  %13 = getelementptr inbounds nuw i8, ptr %0, i64 5168
  %14 = load ptr, ptr %13, align 8
  %15 = sext i32 %1 to i64
  %16 = getelementptr inbounds ptr, ptr %14, i64 %15
  %17 = load ptr, ptr %16, align 8
  %18 = call ptr @Curl_dyn_ptr(ptr noundef nonnull %6) #18
  %19 = call ptr @Curl_slist_append_nodup(ptr noundef %17, ptr noundef %18) #18
  %.not16 = icmp eq ptr %19, null
  br i1 %.not16, label %20, label %24

20:                                               ; preds = %12
  call void @Curl_dyn_free(ptr noundef nonnull %6) #18
  %21 = load ptr, ptr %13, align 8
  %22 = getelementptr inbounds ptr, ptr %21, i64 %15
  %23 = load ptr, ptr %22, align 8
  call void @curl_slist_free_all(ptr noundef %23) #18
  br label %24

24:                                               ; preds = %20, %12
  %.0 = phi i32 [ 0, %12 ], [ 27, %20 ]
  %25 = load ptr, ptr %13, align 8
  %26 = getelementptr inbounds ptr, ptr %25, i64 %15
  store ptr %19, ptr %26, align 8
  br label %27

27:                                               ; preds = %5, %8, %10, %24
  %.013 = phi i32 [ %.0, %24 ], [ 27, %10 ], [ 27, %8 ], [ 27, %5 ]
  ret i32 %.013
}